target datalayout = "e-m:e-p270:32:32-p271:32:32-p272:64:64-i64:64-i128:128-f80:128-n8:16:32:64-S128"
target triple = "x86_64-pc-linux-gnu"

%"struct.Yosys::RTLIL::IdString" = type { i32 }
%"class.std::vector.8" = type { %"struct.std::_Vector_base.9" }
%"struct.std::_Vector_base.9" = type { %"struct.std::_Vector_base<int, std::allocator<int>>::_Vector_impl" }
%"struct.std::_Vector_base<int, std::allocator<int>>::_Vector_impl" = type { %"struct.std::_Vector_base<int, std::allocator<int>>::_Vector_impl_data" }
%"struct.std::_Vector_base<int, std::allocator<int>>::_Vector_impl_data" = type { ptr, ptr, ptr }
%"struct.Yosys::AigNode" = type { %"struct.Yosys::RTLIL::IdString", i32, i8, i32, i32, %"class.std::vector" }
%"class.std::vector" = type { %"struct.std::_Vector_base" }
%"struct.std::_Vector_base" = type { %"struct.std::_Vector_base<std::pair<Yosys::RTLIL::IdString, int>, std::allocator<std::pair<Yosys::RTLIL::IdString, int>>>::_Vector_impl" }
%"struct.std::_Vector_base<std::pair<Yosys::RTLIL::IdString, int>, std::allocator<std::pair<Yosys::RTLIL::IdString, int>>>::_Vector_impl" = type { %"struct.std::_Vector_base<std::pair<Yosys::RTLIL::IdString, int>, std::allocator<std::pair<Yosys::RTLIL::IdString, int>>>::_Vector_impl_data" }
%"struct.std::_Vector_base<std::pair<Yosys::RTLIL::IdString, int>, std::allocator<std::pair<Yosys::RTLIL::IdString, int>>>::_Vector_impl_data" = type { ptr, ptr, ptr }
%"class.Yosys::hashlib::HasherDJB32" = type { i32 }

@_ZN5Yosys5RTLIL8IdString24global_refcount_storage_E = external global %"class.std::vector.8", align 8
@_ZN5Yosys7hashlib11HasherDJB325fudgeE = external global i32, align 4
@_ZN5Yosys5RTLIL8IdString17destruct_guard_okE = external global i8, align 1

; Function Attrs: inlinehint mustprogress nounwind uwtable
define linkonce_odr noundef i32 @_ZN5Yosys7hashlib15mkhash_xorshiftEj(i32 noundef %0) #5 comdat {
  %2 = alloca i32, align 4
  store i32 %0, ptr %2, align 4, !tbaa !32
  %3 = load i32, ptr %2, align 4, !tbaa !32
  %4 = shl i32 %3, 13
  %5 = load i32, ptr %2, align 4, !tbaa !32
  %6 = xor i32 %5, %4
  store i32 %6, ptr %2, align 4, !tbaa !32
  %7 = load i32, ptr %2, align 4, !tbaa !32
  %8 = lshr i32 %7, 17
  %9 = load i32, ptr %2, align 4, !tbaa !32
  %10 = xor i32 %9, %8
  store i32 %10, ptr %2, align 4, !tbaa !32
  %11 = load i32, ptr %2, align 4, !tbaa !32
  %12 = shl i32 %11, 5
  %13 = load i32, ptr %2, align 4, !tbaa !32
  %14 = xor i32 %13, %12
  store i32 %14, ptr %2, align 4, !tbaa !32
  %15 = load i32, ptr %2, align 4, !tbaa !32
  ret i32 %15
}

; Function Attrs: mustprogress nounwind uwtable
define linkonce_odr noundef i32 @_ZN5Yosys7hashlib11HasherDJB328djb2_xorEjj(i32 noundef %0, i32 noundef %1) #6 comdat align 2 {
  %3 = alloca i32, align 4
  %4 = alloca i32, align 4
  %5 = alloca i32, align 4
  store i32 %0, ptr %3, align 4, !tbaa !32
  store i32 %1, ptr %4, align 4, !tbaa !32
  call void @llvm.lifetime.start.p0(i64 4, ptr %5) #3
  %6 = load i32, ptr %3, align 4, !tbaa !32
  %7 = shl i32 %6, 5
  %8 = load i32, ptr %3, align 4, !tbaa !32
  %9 = add i32 %7, %8
  %10 = load i32, ptr %4, align 4, !tbaa !32
  %11 = xor i32 %9, %10
  store i32 %11, ptr %5, align 4, !tbaa !32
  %12 = load i32, ptr %5, align 4, !tbaa !32
  call void @llvm.lifetime.end.p0(i64 4, ptr %5) #3
  ret i32 %12
}

; Function Attrs: mustprogress nounwind uwtable
define linkonce_odr noundef nonnull align 4 dereferenceable(4) ptr @_ZNSt6vectorIiSaIiEEixEm(ptr noundef nonnull align 8 dereferenceable(24) %0, i64 noundef %1) #6 comdat align 2 {
  %3 = alloca ptr, align 8
  %4 = alloca i64, align 8
  store ptr %0, ptr %3, align 8, !tbaa !56
  store i64 %1, ptr %4, align 8, !tbaa !65
  %5 = load ptr, ptr %3, align 8
  %6 = getelementptr inbounds nuw %"struct.std::_Vector_base.9", ptr %5, i32 0, i32 0
  %7 = getelementptr inbounds nuw %"struct.std::_Vector_base<int, std::allocator<int>>::_Vector_impl_data", ptr %6, i32 0, i32 0
  %8 = load ptr, ptr %7, align 8, !tbaa !109
  %9 = load i64, ptr %4, align 8, !tbaa !65
  %10 = getelementptr inbounds nuw i32, ptr %8, i64 %9
  ret ptr %10
}

; Function Attrs: mustprogress uwtable
define linkonce_odr void @_ZN5Yosys7hashlib11HasherDJB326hash32Ej(ptr noundef nonnull align 4 dereferenceable(4) %0, i32 noundef %1) #4 comdat align 2 {
  %3 = alloca ptr, align 8
  %4 = alloca i32, align 4
  store ptr %0, ptr %3, align 8, !tbaa !33
  store i32 %1, ptr %4, align 4, !tbaa !32
  %5 = load ptr, ptr %3, align 8
  %6 = load i32, ptr %4, align 4, !tbaa !32
  %7 = getelementptr inbounds nuw %"class.Yosys::hashlib::HasherDJB32", ptr %5, i32 0, i32 0
  %8 = load i32, ptr %7, align 4, !tbaa !206
  %9 = call noundef i32 @_ZN5Yosys7hashlib11HasherDJB328djb2_xorEjj(i32 noundef %6, i32 noundef %8)
  %10 = getelementptr inbounds nuw %"class.Yosys::hashlib::HasherDJB32", ptr %5, i32 0, i32 0
  store i32 %9, ptr %10, align 4, !tbaa !206
  %11 = load i32, ptr @_ZN5Yosys7hashlib11HasherDJB325fudgeE, align 4, !tbaa !32
  %12 = getelementptr inbounds nuw %"class.Yosys::hashlib::HasherDJB32", ptr %5, i32 0, i32 0
  %13 = load i32, ptr %12, align 4, !tbaa !206
  %14 = xor i32 %11, %13
  %15 = call noundef i32 @_ZN5Yosys7hashlib15mkhash_xorshiftEj(i32 noundef %14)
  %16 = getelementptr inbounds nuw %"class.Yosys::hashlib::HasherDJB32", ptr %5, i32 0, i32 0
  store i32 %15, ptr %16, align 4, !tbaa !206
  ret void
}

; Function Attrs: inlinehint mustprogress uwtable
define linkonce_odr void @_ZN5Yosys5RTLIL8IdString13put_referenceEi(i32 noundef %0) #9 comdat align 2 {
  %2 = alloca i32, align 4
  %3 = alloca ptr, align 8
  %4 = alloca i32, align 4
  store i32 %0, ptr %2, align 4, !tbaa !32
  %5 = load i8, ptr @_ZN5Yosys5RTLIL8IdString17destruct_guard_okE, align 1, !tbaa !45, !range !29, !noundef !30
  %6 = trunc i8 %5 to i1
  br i1 %6, label %7, label %10

7:                                                ; preds = %1
  %8 = load i32, ptr %2, align 4, !tbaa !32
  %9 = icmp ne i32 %8, 0
  br i1 %9, label %11, label %10

10:                                               ; preds = %7, %1
  br label %27

11:                                               ; preds = %7
  call void @llvm.lifetime.start.p0(i64 8, ptr %3) #3
  %12 = load i32, ptr %2, align 4, !tbaa !32
  %13 = sext i32 %12 to i64
  %14 = call noundef nonnull align 4 dereferenceable(4) ptr @_ZNSt6vectorIiSaIiEEixEm(ptr noundef nonnull align 8 dereferenceable(24) @_ZN5Yosys5RTLIL8IdString24global_refcount_storage_E, i64 noundef %13) #3
  store ptr %14, ptr %3, align 8, !tbaa !35
  %15 = load ptr, ptr %3, align 8, !tbaa !35
  %16 = load i32, ptr %15, align 4, !tbaa !32
  %17 = add nsw i32 %16, -1
  store i32 %17, ptr %15, align 4, !tbaa !32
  %18 = icmp sgt i32 %17, 0
  br i1 %18, label %19, label %20

19:                                               ; preds = %11
  store i32 1, ptr %4, align 4
  br label %25

20:                                               ; preds = %11
  br label %21

21:                                               ; preds = %20
  br label %22

22:                                               ; preds = %21
  br label %23

23:                                               ; preds = %22
  %24 = load i32, ptr %2, align 4, !tbaa !32
  call void @_ZN5Yosys5RTLIL8IdString14free_referenceEi(i32 noundef %24)
  store i32 0, ptr %4, align 4
  br label %25

25:                                               ; preds = %23, %19
  call void @llvm.lifetime.end.p0(i64 8, ptr %3) #3
  %26 = load i32, ptr %4, align 4
  switch i32 %26, label %28 [
    i32 0, label %27
    i32 1, label %27
  ]

27:                                               ; preds = %10, %25, %25
  ret void

28:                                               ; preds = %25
  unreachable
}

; Function Attrs: mustprogress uwtable
define linkonce_odr i32 @_ZNK5Yosys5RTLIL8IdString9hash_intoENS_7hashlib11HasherDJB32E(ptr noundef nonnull align 4 dereferenceable(4) %0, i32 %1) #4 comdat align 2 {
  %3 = alloca %"class.Yosys::hashlib::HasherDJB32", align 4
  %4 = alloca %"class.Yosys::hashlib::HasherDJB32", align 4
  %5 = alloca ptr, align 8
  %6 = alloca %"class.Yosys::hashlib::HasherDJB32", align 4
  %7 = getelementptr inbounds nuw %"class.Yosys::hashlib::HasherDJB32", ptr %4, i32 0, i32 0
  store i32 %1, ptr %7, align 4
  store ptr %0, ptr %5, align 8, !tbaa !24
  %8 = load ptr, ptr %5, align 8
  %9 = getelementptr inbounds nuw %"struct.Yosys::RTLIL::IdString", ptr %8, i32 0, i32 0
  call void @llvm.memcpy.p0.p0.i64(ptr align 4 %6, ptr align 4 %4, i64 4, i1 false), !tbaa.struct !31
  %10 = getelementptr inbounds nuw %"class.Yosys::hashlib::HasherDJB32", ptr %6, i32 0, i32 0
  %11 = load i32, ptr %10, align 4
  %12 = call i32 @_ZN5Yosys7hashlib8hash_opsIiE9hash_intoERKiNS0_11HasherDJB32E(ptr noundef nonnull align 4 dereferenceable(4) %9, i32 %11)
  %13 = getelementptr inbounds nuw %"class.Yosys::hashlib::HasherDJB32", ptr %3, i32 0, i32 0
  store i32 %12, ptr %13, align 4
  %14 = getelementptr inbounds nuw %"class.Yosys::hashlib::HasherDJB32", ptr %3, i32 0, i32 0
  %15 = load i32, ptr %14, align 4
  ret i32 %15
}

; Function Attrs: inlinehint mustprogress nounwind uwtable
define linkonce_odr noundef i32 @_ZN5Yosys5RTLIL8IdString13get_referenceEi(i32 noundef %0) #5 comdat align 2 {
  %2 = alloca i32, align 4
  store i32 %0, ptr %2, align 4, !tbaa !32
  %3 = load i32, ptr %2, align 4, !tbaa !32
  %4 = icmp ne i32 %3, 0
  br i1 %4, label %5, label %11

5:                                                ; preds = %1
  %6 = load i32, ptr %2, align 4, !tbaa !32
  %7 = sext i32 %6 to i64
  %8 = call noundef nonnull align 4 dereferenceable(4) ptr @_ZNSt6vectorIiSaIiEEixEm(ptr noundef nonnull align 8 dereferenceable(24) @_ZN5Yosys5RTLIL8IdString24global_refcount_storage_E, i64 noundef %7) #3
  %9 = load i32, ptr %8, align 4, !tbaa !32
  %10 = add nsw i32 %9, 1
  store i32 %10, ptr %8, align 4, !tbaa !32
  br label %11

11:                                               ; preds = %5, %1
  %12 = load i32, ptr %2, align 4, !tbaa !32
  ret i32 %12
}

; Function Attrs: inlinehint mustprogress uwtable
define linkonce_odr i32 @_ZN5Yosys7hashlib8hash_opsIbE9hash_intoERKbNS0_11HasherDJB32E(ptr noundef nonnull align 1 dereferenceable(1) %0, i32 %1) #9 comdat align 2 {
  %3 = alloca %"class.Yosys::hashlib::HasherDJB32", align 4
  %4 = alloca %"class.Yosys::hashlib::HasherDJB32", align 4
  %5 = alloca ptr, align 8
  %6 = getelementptr inbounds nuw %"class.Yosys::hashlib::HasherDJB32", ptr %4, i32 0, i32 0
  store i32 %1, ptr %6, align 4
  store ptr %0, ptr %5, align 8, !tbaa !37
  %7 = load ptr, ptr %5, align 8, !tbaa !37
  %8 = load i8, ptr %7, align 1, !tbaa !45, !range !29, !noundef !30
  %9 = trunc i8 %8 to i1
  %10 = zext i1 %9 to i32
  call void @_ZN5Yosys7hashlib11HasherDJB326hash32Ej(ptr noundef nonnull align 4 dereferenceable(4) %4, i32 noundef %10)
  call void @llvm.memcpy.p0.p0.i64(ptr align 4 %3, ptr align 4 %4, i64 4, i1 false), !tbaa.struct !31
  %11 = getelementptr inbounds nuw %"class.Yosys::hashlib::HasherDJB32", ptr %3, i32 0, i32 0
  %12 = load i32, ptr %11, align 4
  ret i32 %12
}

; Function Attrs: inlinehint mustprogress uwtable
define linkonce_odr i32 @_ZN5Yosys7hashlib8hash_opsIiE9hash_intoERKiNS0_11HasherDJB32E(ptr noundef nonnull align 4 dereferenceable(4) %0, i32 %1) #9 comdat align 2 {
  %3 = alloca %"class.Yosys::hashlib::HasherDJB32", align 4
  %4 = alloca %"class.Yosys::hashlib::HasherDJB32", align 4
  %5 = alloca ptr, align 8
  %6 = getelementptr inbounds nuw %"class.Yosys::hashlib::HasherDJB32", ptr %4, i32 0, i32 0
  store i32 %1, ptr %6, align 4
  store ptr %0, ptr %5, align 8, !tbaa !35
  %7 = load ptr, ptr %5, align 8, !tbaa !35
  %8 = load i32, ptr %7, align 4, !tbaa !32
  call void @_ZN5Yosys7hashlib11HasherDJB326hash32Ej(ptr noundef nonnull align 4 dereferenceable(4) %4, i32 noundef %8)
  call void @llvm.memcpy.p0.p0.i64(ptr align 4 %3, ptr align 4 %4, i64 4, i1 false), !tbaa.struct !31
  %9 = getelementptr inbounds nuw %"class.Yosys::hashlib::HasherDJB32", ptr %3, i32 0, i32 0
  %10 = load i32, ptr %9, align 4
  ret i32 %10
}

; Function Attrs: inlinehint mustprogress nounwind uwtable
define linkonce_odr void @_ZN5Yosys5RTLIL8IdStringD2Ev(ptr noundef nonnull align 4 dereferenceable(4) %0) unnamed_addr #5 comdat align 2 personality ptr @__gxx_personality_v0 {
  %2 = alloca ptr, align 8
  store ptr %0, ptr %2, align 8, !tbaa !24
  %3 = load ptr, ptr %2, align 8
  %4 = getelementptr inbounds nuw %"struct.Yosys::RTLIL::IdString", ptr %3, i32 0, i32 0
  %5 = load i32, ptr %4, align 4, !tbaa !26
  invoke void @_ZN5Yosys5RTLIL8IdString13put_referenceEi(i32 noundef %5)
          to label %6 unwind label %7

6:                                                ; preds = %1
  ret void

7:                                                ; preds = %1
  %8 = landingpad { ptr, i32 }
          catch ptr null
  %9 = extractvalue { ptr, i32 } %8, 0
  call void @__clang_call_terminate(ptr %9) #19
  unreachable
}

; Function Attrs: inlinehint mustprogress uwtable
define linkonce_odr i32 @_ZN5Yosys7hashlib8hash_opsINS_5RTLIL8IdStringEE9hash_intoES3_NS0_11HasherDJB32E(ptr noundef %0, i32 %1) #9 comdat align 2 {
  %3 = alloca %"class.Yosys::hashlib::HasherDJB32", align 4
  %4 = alloca %"class.Yosys::hashlib::HasherDJB32", align 4
  %5 = alloca ptr, align 8
  %6 = alloca %"class.Yosys::hashlib::HasherDJB32", align 4
  %7 = getelementptr inbounds nuw %"class.Yosys::hashlib::HasherDJB32", ptr %4, i32 0, i32 0
  store i32 %1, ptr %7, align 4
  store ptr %0, ptr %5, align 8, !tbaa !24
  call void @llvm.memcpy.p0.p0.i64(ptr align 4 %6, ptr align 4 %4, i64 4, i1 false), !tbaa.struct !31
  %8 = getelementptr inbounds nuw %"class.Yosys::hashlib::HasherDJB32", ptr %6, i32 0, i32 0
  %9 = load i32, ptr %8, align 4
  %10 = call i32 @_ZNK5Yosys5RTLIL8IdString9hash_intoENS_7hashlib11HasherDJB32E(ptr noundef nonnull align 4 dereferenceable(4) %0, i32 %9)
  %11 = getelementptr inbounds nuw %"class.Yosys::hashlib::HasherDJB32", ptr %3, i32 0, i32 0
  store i32 %10, ptr %11, align 4
  %12 = getelementptr inbounds nuw %"class.Yosys::hashlib::HasherDJB32", ptr %3, i32 0, i32 0
  %13 = load i32, ptr %12, align 4
  ret i32 %13
}

; Function Attrs: inlinehint mustprogress nounwind uwtable
define linkonce_odr void @_ZN5Yosys5RTLIL8IdStringC2ERKS1_(ptr noundef nonnull align 4 dereferenceable(4) %0, ptr noundef nonnull align 4 dereferenceable(4) %1) unnamed_addr #5 comdat align 2 {
  %3 = alloca ptr, align 8
  %4 = alloca ptr, align 8
  store ptr %0, ptr %3, align 8, !tbaa !24
  store ptr %1, ptr %4, align 8, !tbaa !24
  %5 = load ptr, ptr %3, align 8
  %6 = getelementptr inbounds nuw %"struct.Yosys::RTLIL::IdString", ptr %5, i32 0, i32 0
  %7 = load ptr, ptr %4, align 8, !tbaa !24
  %8 = getelementptr inbounds nuw %"struct.Yosys::RTLIL::IdString", ptr %7, i32 0, i32 0
  %9 = load i32, ptr %8, align 4, !tbaa !26
  %10 = call noundef i32 @_ZN5Yosys5RTLIL8IdString13get_referenceEi(i32 noundef %9)
  store i32 %10, ptr %6, align 4, !tbaa !26
  ret void
}

; Function Attrs: mustprogress uwtable
define linkonce_odr void @_ZN5Yosys7hashlib11HasherDJB323eatIbEEvRKT_(ptr noundef nonnull align 4 dereferenceable(4) %0, ptr noundef nonnull align 1 dereferenceable(1) %1) #4 comdat align 2 {
  %3 = alloca ptr, align 8
  %4 = alloca ptr, align 8
  %5 = alloca %"class.Yosys::hashlib::HasherDJB32", align 4
  %6 = alloca %"class.Yosys::hashlib::HasherDJB32", align 4
  store ptr %0, ptr %3, align 8, !tbaa !33
  store ptr %1, ptr %4, align 8, !tbaa !37
  %7 = load ptr, ptr %3, align 8
  call void @llvm.lifetime.start.p0(i64 4, ptr %5) #3
  %8 = load ptr, ptr %4, align 8, !tbaa !37
  call void @llvm.memcpy.p0.p0.i64(ptr align 4 %6, ptr align 4 %7, i64 4, i1 false), !tbaa.struct !31
  %9 = getelementptr inbounds nuw %"class.Yosys::hashlib::HasherDJB32", ptr %6, i32 0, i32 0
  %10 = load i32, ptr %9, align 4
  %11 = call i32 @_ZN5Yosys7hashlib8hash_opsIbE9hash_intoERKbNS0_11HasherDJB32E(ptr noundef nonnull align 1 dereferenceable(1) %8, i32 %10)
  %12 = getelementptr inbounds nuw %"class.Yosys::hashlib::HasherDJB32", ptr %5, i32 0, i32 0
  store i32 %11, ptr %12, align 4
  call void @llvm.memcpy.p0.p0.i64(ptr align 4 %7, ptr align 4 %5, i64 4, i1 false), !tbaa.struct !31
  call void @llvm.lifetime.end.p0(i64 4, ptr %5) #3
  ret void
}

; Function Attrs: mustprogress uwtable
define linkonce_odr void @_ZN5Yosys7hashlib11HasherDJB323eatIiEEvRKT_(ptr noundef nonnull align 4 dereferenceable(4) %0, ptr noundef nonnull align 4 dereferenceable(4) %1) #4 comdat align 2 {
  %3 = alloca ptr, align 8
  %4 = alloca ptr, align 8
  %5 = alloca %"class.Yosys::hashlib::HasherDJB32", align 4
  %6 = alloca %"class.Yosys::hashlib::HasherDJB32", align 4
  store ptr %0, ptr %3, align 8, !tbaa !33
  store ptr %1, ptr %4, align 8, !tbaa !35
  %7 = load ptr, ptr %3, align 8
  call void @llvm.lifetime.start.p0(i64 4, ptr %5) #3
  %8 = load ptr, ptr %4, align 8, !tbaa !35
  call void @llvm.memcpy.p0.p0.i64(ptr align 4 %6, ptr align 4 %7, i64 4, i1 false), !tbaa.struct !31
  %9 = getelementptr inbounds nuw %"class.Yosys::hashlib::HasherDJB32", ptr %6, i32 0, i32 0
  %10 = load i32, ptr %9, align 4
  %11 = call i32 @_ZN5Yosys7hashlib8hash_opsIiE9hash_intoERKiNS0_11HasherDJB32E(ptr noundef nonnull align 4 dereferenceable(4) %8, i32 %10)
  %12 = getelementptr inbounds nuw %"class.Yosys::hashlib::HasherDJB32", ptr %5, i32 0, i32 0
  store i32 %11, ptr %12, align 4
  call void @llvm.memcpy.p0.p0.i64(ptr align 4 %7, ptr align 4 %5, i64 4, i1 false), !tbaa.struct !31
  call void @llvm.lifetime.end.p0(i64 4, ptr %5) #3
  ret void
}

; Function Attrs: mustprogress uwtable
define linkonce_odr void @_ZN5Yosys7hashlib11HasherDJB323eatINS_5RTLIL8IdStringEEEvRKT_(ptr noundef nonnull align 4 dereferenceable(4) %0, ptr noundef nonnull align 4 dereferenceable(4) %1) #4 comdat align 2 personality ptr @__gxx_personality_v0 {
  %3 = alloca ptr, align 8
  %4 = alloca ptr, align 8
  %5 = alloca %"class.Yosys::hashlib::HasherDJB32", align 4
  %6 = alloca %"struct.Yosys::RTLIL::IdString", align 4
  %7 = alloca %"class.Yosys::hashlib::HasherDJB32", align 4
  %8 = alloca ptr, align 8
  %9 = alloca i32, align 4
  store ptr %0, ptr %3, align 8, !tbaa !33
  store ptr %1, ptr %4, align 8, !tbaa !24
  %10 = load ptr, ptr %3, align 8
  call void @llvm.lifetime.start.p0(i64 4, ptr %5) #3
  %11 = load ptr, ptr %4, align 8, !tbaa !24
  call void @_ZN5Yosys5RTLIL8IdStringC2ERKS1_(ptr noundef nonnull align 4 dereferenceable(4) %6, ptr noundef nonnull align 4 dereferenceable(4) %11)
  call void @llvm.memcpy.p0.p0.i64(ptr align 4 %7, ptr align 4 %10, i64 4, i1 false), !tbaa.struct !31
  %12 = getelementptr inbounds nuw %"class.Yosys::hashlib::HasherDJB32", ptr %7, i32 0, i32 0
  %13 = load i32, ptr %12, align 4
  %14 = invoke i32 @_ZN5Yosys7hashlib8hash_opsINS_5RTLIL8IdStringEE9hash_intoES3_NS0_11HasherDJB32E(ptr noundef %6, i32 %13)
          to label %15 unwind label %17

15:                                               ; preds = %2
  %16 = getelementptr inbounds nuw %"class.Yosys::hashlib::HasherDJB32", ptr %5, i32 0, i32 0
  store i32 %14, ptr %16, align 4
  call void @llvm.memcpy.p0.p0.i64(ptr align 4 %10, ptr align 4 %5, i64 4, i1 false), !tbaa.struct !31
  call void @_ZN5Yosys5RTLIL8IdStringD2Ev(ptr noundef nonnull align 4 dereferenceable(4) %6) #3
  call void @llvm.lifetime.end.p0(i64 4, ptr %5) #3
  ret void

17:                                               ; preds = %2
  %18 = landingpad { ptr, i32 }
          cleanup
  %19 = extractvalue { ptr, i32 } %18, 0
  store ptr %19, ptr %8, align 8
  %20 = extractvalue { ptr, i32 } %18, 1
  store i32 %20, ptr %9, align 4
  call void @_ZN5Yosys5RTLIL8IdStringD2Ev(ptr noundef nonnull align 4 dereferenceable(4) %6) #3
  call void @llvm.lifetime.end.p0(i64 4, ptr %5) #3
  br label %21

21:                                               ; preds = %17
  %22 = load ptr, ptr %8, align 8
  %23 = load i32, ptr %9, align 4
  %24 = insertvalue { ptr, i32 } poison, ptr %22, 0
  %25 = insertvalue { ptr, i32 } %24, i32 %23, 1
  resume { ptr, i32 } %25
}

; Function Attrs: mustprogress uwtable
define i32 @_ZNK5Yosys7AigNode9hash_intoENS_7hashlib11HasherDJB32E(ptr noundef nonnull align 8 dereferenceable(48) %0, i32 %1) #4 align 2 {
  %3 = alloca %"class.Yosys::hashlib::HasherDJB32", align 4
  %4 = alloca %"class.Yosys::hashlib::HasherDJB32", align 4
  %5 = alloca ptr, align 8
  %6 = getelementptr inbounds nuw %"class.Yosys::hashlib::HasherDJB32", ptr %4, i32 0, i32 0
  store i32 %1, ptr %6, align 4
  store ptr %0, ptr %5, align 8, !tbaa !6
  %7 = load ptr, ptr %5, align 8
  %8 = getelementptr inbounds nuw %"struct.Yosys::AigNode", ptr %7, i32 0, i32 0
  call void @_ZN5Yosys7hashlib11HasherDJB323eatINS_5RTLIL8IdStringEEEvRKT_(ptr noundef nonnull align 4 dereferenceable(4) %4, ptr noundef nonnull align 4 dereferenceable(4) %8)
  %9 = getelementptr inbounds nuw %"struct.Yosys::AigNode", ptr %7, i32 0, i32 1
  call void @_ZN5Yosys7hashlib11HasherDJB323eatIiEEvRKT_(ptr noundef nonnull align 4 dereferenceable(4) %4, ptr noundef nonnull align 4 dereferenceable(4) %9)
  %10 = getelementptr inbounds nuw %"struct.Yosys::AigNode", ptr %7, i32 0, i32 2
  call void @_ZN5Yosys7hashlib11HasherDJB323eatIbEEvRKT_(ptr noundef nonnull align 4 dereferenceable(4) %4, ptr noundef nonnull align 1 dereferenceable(1) %10)
  %11 = getelementptr inbounds nuw %"struct.Yosys::AigNode", ptr %7, i32 0, i32 3
  call void @_ZN5Yosys7hashlib11HasherDJB323eatIiEEvRKT_(ptr noundef nonnull align 4 dereferenceable(4) %4, ptr noundef nonnull align 4 dereferenceable(4) %11)
  %12 = getelementptr inbounds nuw %"struct.Yosys::AigNode", ptr %7, i32 0, i32 4
  call void @_ZN5Yosys7hashlib11HasherDJB323eatIiEEvRKT_(ptr noundef nonnull align 4 dereferenceable(4) %4, ptr noundef nonnull align 4 dereferenceable(4) %12)
  call void @llvm.memcpy.p0.p0.i64(ptr align 4 %3, ptr align 4 %4, i64 4, i1 false), !tbaa.struct !31
  %13 = getelementptr inbounds nuw %"class.Yosys::hashlib::HasherDJB32", ptr %3, i32 0, i32 0
  %14 = load i32, ptr %13, align 4
  ret i32 %14
}