; Function Attrs: mustprogress nounwind uwtable
define i32 @_ZNK5Yosys7AigNode9hash_intoENS_7hashlib11HasherDJB32E(ptr noundef nonnull readonly align 8 captures(none) dereferenceable(48) %0, i32 %1) local_unnamed_addr #5 align 2 personality ptr @__gxx_personality_v0 {
  %3 = load i32, ptr %0, align 8, !tbaa !6
  %.not.i.i.i = icmp eq i32 %3, 0
  br i1 %.not.i.i.i, label %.thread, label %5

.thread:                                          ; preds = %2
  %4 = load i32, ptr @_ZN5Yosys7hashlib11HasherDJB325fudgeE, align 4, !tbaa !25
  br label %_ZN5Yosys7hashlib11HasherDJB323eatINS_5RTLIL8IdStringEEEvRKT_.exit

5:                                                ; preds = %2
  %6 = sext i32 %3 to i64
  %7 = load ptr, ptr @_ZN5Yosys5RTLIL8IdString24global_refcount_storage_E, align 8, !tbaa !26
  %8 = getelementptr inbounds nuw i32, ptr %7, i64 %6
  %9 = load i32, ptr %8, align 4, !tbaa !25
  %10 = add nsw i32 %9, 1
  store i32 %10, ptr %8, align 4, !tbaa !25
  %11 = load i32, ptr @_ZN5Yosys7hashlib11HasherDJB325fudgeE, align 4, !tbaa !25
  %12 = load i8, ptr @_ZN5Yosys5RTLIL8IdString17destruct_guard_okE, align 1, !tbaa !29, !range !23, !noundef !24
  %13 = trunc nuw i8 %12 to i1
  br i1 %13, label %14, label %_ZN5Yosys7hashlib11HasherDJB323eatINS_5RTLIL8IdStringEEEvRKT_.exit

14:                                               ; preds = %5
  %15 = sext i32 %3 to i64
  %16 = load ptr, ptr @_ZN5Yosys5RTLIL8IdString24global_refcount_storage_E, align 8, !tbaa !26
  %17 = getelementptr inbounds nuw i32, ptr %16, i64 %15
  %18 = load i32, ptr %17, align 4, !tbaa !25
  %19 = add nsw i32 %18, -1
  store i32 %19, ptr %17, align 4, !tbaa !25
  %20 = icmp sgt i32 %18, 1
  br i1 %20, label %_ZN5Yosys7hashlib11HasherDJB323eatINS_5RTLIL8IdStringEEEvRKT_.exit, label %21

21:                                               ; preds = %14
  invoke void @_ZN5Yosys5RTLIL8IdString14free_referenceEi(i32 noundef %3)
          to label %_ZN5Yosys7hashlib11HasherDJB323eatINS_5RTLIL8IdStringEEEvRKT_.exit unwind label %22

22:                                               ; preds = %21
  %23 = landingpad { ptr, i32 }
          catch ptr null
  %24 = extractvalue { ptr, i32 } %23, 0
  tail call void @__clang_call_terminate(ptr %24) #31
  unreachable

_ZN5Yosys7hashlib11HasherDJB323eatINS_5RTLIL8IdStringEEEvRKT_.exit: ; preds = %.thread, %5, %14, %21
  %25 = phi i32 [ %4, %.thread ], [ %11, %5 ], [ %11, %14 ], [ %11, %21 ]
  %26 = mul i32 %3, 33
  %27 = xor i32 %26, %1
  %28 = xor i32 %27, %25
  %29 = shl i32 %28, 13
  %30 = xor i32 %29, %28
  %31 = lshr i32 %30, 17
  %32 = xor i32 %31, %30
  %33 = shl i32 %32, 5
  %34 = getelementptr inbounds nuw i8, ptr %0, i64 4
  %35 = load i32, ptr %34, align 4, !tbaa !25
  %36 = mul i32 %35, 33
  %37 = load i32, ptr @_ZN5Yosys7hashlib11HasherDJB325fudgeE, align 4, !tbaa !25
  %38 = xor i32 %33, %36
  %39 = xor i32 %38, %32
  %40 = xor i32 %39, %37
  %41 = shl i32 %40, 13
  %42 = xor i32 %41, %40
  %43 = lshr i32 %42, 17
  %44 = xor i32 %43, %42
  %45 = shl i32 %44, 5
  %46 = getelementptr inbounds nuw i8, ptr %0, i64 8
  %47 = load i8, ptr %46, align 8, !tbaa !29, !range !23, !noundef !24
  %narrow.i.i = mul nuw nsw i8 %47, 33
  %48 = zext nneg i8 %narrow.i.i to i32
  %49 = xor i32 %45, %48
  %50 = xor i32 %49, %37
  %51 = xor i32 %50, %44
  %52 = shl i32 %51, 13
  %53 = xor i32 %52, %51
  %54 = lshr i32 %53, 17
  %55 = xor i32 %54, %53
  %56 = shl i32 %55, 5
  %57 = getelementptr inbounds nuw i8, ptr %0, i64 12
  %58 = load i32, ptr %57, align 4, !tbaa !25
  %59 = mul i32 %58, 33
  %60 = xor i32 %59, %56
  %61 = xor i32 %60, %37
  %62 = xor i32 %61, %55
  %63 = shl i32 %62, 13
  %64 = xor i32 %63, %62
  %65 = lshr i32 %64, 17
  %66 = xor i32 %65, %64
  %67 = shl i32 %66, 5
  %68 = getelementptr inbounds nuw i8, ptr %0, i64 16
  %69 = load i32, ptr %68, align 8, !tbaa !25
  %70 = mul i32 %69, 33
  %71 = xor i32 %70, %67
  %72 = xor i32 %71, %37
  %73 = xor i32 %72, %66
  %74 = shl i32 %73, 13
  %75 = xor i32 %74, %73
  %76 = lshr i32 %75, 17
  %77 = xor i32 %76, %75
  %78 = shl i32 %77, 5
  %79 = xor i32 %78, %77
  ret i32 %79
}